EXPORTS
	??0CDebuggerBase@@QAE@PAVCDebuggerAPI@@@Z @ 1 NONAME ; public: __thiscall CDebuggerBase::CDebuggerBase(class CDebuggerAPI *)
	??0COplRuntime@@QAE@XZ @ 2 NONAME ; public: __thiscall COplRuntime::COplRuntime(void)
	??0COpxBase@@QAE@AAVOplAPI@@@Z @ 3 NONAME ; public: __thiscall COpxBase::COpxBase(class OplAPI &)
	??1CLogicalNames@@UAE@XZ @ 4 NONAME ; public: virtual __thiscall CLogicalNames::~CLogicalNames(void)
	??1COplRowSet@@UAE@XZ @ 5 NONAME ; public: virtual __thiscall COplRowSet::~COplRowSet(void)
	?AddRowSet@CLogicalNames@@QAEXHPAVCOplRowSet@@@Z @ 6 NONAME ; public: void __thiscall CLogicalNames::AddRowSet(int,class COplRowSet *)
	?AppUid@OplAPI@@QAE?AVTUid@@XZ @ 7 NONAME ; public: class TUid  __thiscall OplAPI::AppUid(void)
	?AppendFieldL@COplFieldMap@@QAEXAAVTDesC16@@H@Z @ 8 NONAME ; public: void __thiscall COplFieldMap::AppendFieldL(class TDesC16 &,int)
	?AppendL@COplDbManager@@QAEXXZ @ 9 NONAME ; public: void __thiscall COplDbManager::AppendL(void)
	?BackL@COplDbManager@@QAEXXZ @ 10 NONAME ; public: void __thiscall COplDbManager::BackL(void)
	?BeginTrans@COplDbManager@@QAEXXZ @ 11 NONAME ; public: void __thiscall COplDbManager::BeginTrans(void)
	?BitmapHandleFromIdL@OplAPI@@QAEHH@Z @ 12 NONAME ; public: int __thiscall OplAPI::BitmapHandleFromIdL(int)
	?Bookmark@COplDbManager@@QAEHXZ @ 13 NONAME ; public: int __thiscall COplDbManager::Bookmark(void)
	?CallProcedure@OplAPI@@QAEHW4TReturnType@@@Z @ 14 NONAME ; public: int __thiscall OplAPI::CallProcedure(enum TReturnType)
	?Cancel@COplDbManager@@QAEXXZ @ 15 NONAME ; public: void __thiscall COplDbManager::Cancel(void)
	?CancelAllUpdates@CLogicalNames@@QAEXXZ @ 16 NONAME ; public: void __thiscall CLogicalNames::CancelAllUpdates(void)
	?CancelIfUpdate@COplDbManager@@QAEXXZ @ 17 NONAME ; public: void __thiscall COplDbManager::CancelIfUpdate(void)
	?WaitForEvent@OplAPI@@QAEXAAVTWsEvent@@W4TUserEventsRequired@@ABV?$TArray@PAVMEventSource@@@@@Z @ 18 NONAME ; public: void __thiscall OplAPI::WaitForEvent(class TWsEvent &,enum TUserEventsRequired,class TArray<class MEventSource *> const &)
	?Close@COplDb@@QAEXXZ @ 19 NONAME ; public: void __thiscall COplDb::Close(void)
	?Close@COplDbManager@@QAEXXZ @ 20 NONAME ; public: void __thiscall COplDbManager::Close(void)
	?CloseDbIfNotInUseL@COplDbCollection@@QAEXPAVCOplDb@@AAVCOplRuntime@@@Z @ 21 NONAME ; public: void __thiscall COplDbCollection::CloseDbIfNotInUseL(class COplDb *,class COplRuntime &)
	?CloseOplRowSet@CLogicalNames@@QAEPAVCOplRowSet@@XZ @ 22 NONAME ; public: class COplRowSet * __thiscall CLogicalNames::CloseOplRowSet(void)
	?CommitTrans@COplDbManager@@QAEXXZ @ 23 NONAME ; public: void __thiscall COplDbManager::CommitTrans(void)
	?CompactL@COplDbManager@@QAEXVTPtrC16@@@Z @ 24 NONAME ; public: void __thiscall COplDbManager::CompactL(class TPtrC16)
	?CopyCurrRowToEnd@COplRowSet@@QAEXXZ @ 25 NONAME ; public: void __thiscall COplRowSet::CopyCurrRowToEnd(void)
	?CreateOrOpenDbaseL@COplDbCollection@@QAEPAVCOplDb@@ABVTDesC16@@W4TOplDbOpenMode@@H@Z @ 26 NONAME ; public: class COplDb * __thiscall COplDbCollection::CreateOrOpenDbaseL(class TDesC16 const &,enum TOplDbOpenMode,int)
	?CreateTable@COplDb@@QAEHABVTDesC16@@ABVCDbColSet@@@Z @ 27 NONAME ; public: int __thiscall COplDb::CreateTable(class TDesC16 const &,class CDbColSet const &)
	?CurrentDocumentName@COplRuntime@@QAEAAVTDesC16@@XZ @ 28 NONAME ; public: class TDesC16 & __thiscall COplRuntime::CurrentDocumentName(void)
	?DbManager@OplAPI@@QAEPAVCOplDbManager@@XZ @ 29 NONAME ; public: class COplDbManager * __thiscall OplAPI::DbManager(void)
	?DebuggerDllFilename@@YA?AVTPtrC16@@XZ @ 30 NONAME ; class TPtrC16  __cdecl DebuggerDllFilename(void)
	?DecAccessCount@COpxBase@@AAEHXZ @ 31 NONAME ; private: int __thiscall COpxBase::DecAccessCount(void)
	?DeleteTable@COplDbManager@@QAEXVTPtrC16@@0@Z @ 32 NONAME ; public: void __thiscall COplDbManager::DeleteTable(class TPtrC16,class TPtrC16)
	?EOF@COplDbManager@@QAEHXZ @ 33 NONAME ; public: int __thiscall COplDbManager::EOF(void)
	?EikonEnv@OplAPI@@QBEAAVCEikonEnv@@XZ @ 34 NONAME ; public: class CEikonEnv & __thiscall OplAPI::EikonEnv(void)const 
	?Erase@COplDbManager@@QAEXXZ @ 35 NONAME ; public: void __thiscall COplDbManager::Erase(void)
	?ExamineGlobalInt16L@CDebuggerAPI@@QBEFABVTDesC16@@H@Z @ 36 NONAME ; public: short __thiscall CDebuggerAPI::ExamineGlobalInt16L(class TDesC16 const &,int)const 
	?ExamineGlobalInt32L@CDebuggerAPI@@QBEJABVTDesC16@@H@Z @ 37 NONAME ; public: long __thiscall CDebuggerAPI::ExamineGlobalInt32L(class TDesC16 const &,int)const 
	?ExamineGlobalReal64L@CDebuggerAPI@@QBENABVTDesC16@@H@Z @ 38 NONAME ; public: double __thiscall CDebuggerAPI::ExamineGlobalReal64L(class TDesC16 const &,int)const 
	?ExamineGlobalStringL@CDebuggerAPI@@QBE?AVTPtrC16@@ABVTDesC16@@H@Z @ 39 NONAME ; public: class TPtrC16  __thiscall CDebuggerAPI::ExamineGlobalStringL(class TDesC16 const &,int)const 
	?ExamineLocalInt16L@CDebuggerAPI@@QBEFHH@Z @ 40 NONAME ; public: short __thiscall CDebuggerAPI::ExamineLocalInt16L(int,int)const 
	?ExamineLocalInt32L@CDebuggerAPI@@QBEJHH@Z @ 41 NONAME ; public: long __thiscall CDebuggerAPI::ExamineLocalInt32L(int,int)const 
	?ExamineLocalReal64L@CDebuggerAPI@@QBENHH@Z @ 42 NONAME ; public: double __thiscall CDebuggerAPI::ExamineLocalReal64L(int,int)const 
	?ExamineLocalStringL@CDebuggerAPI@@QBE?AVTPtrC16@@HH@Z @ 43 NONAME ; public: class TPtrC16  __thiscall CDebuggerAPI::ExamineLocalStringL(int,int)const 
	?ExpandFieldMapToCoverRichText@COplRowSet@@QAEXAAVCOplFieldMap@@@Z @ 44 NONAME ; public: void __thiscall COplRowSet::ExpandFieldMapToCoverRichText(class COplFieldMap &)
	?ExternalizeL@TOplDocRootStream@@QBEXAAVRWriteStream@@@Z @ 45 NONAME ; public: void __thiscall TOplDocRootStream::ExternalizeL(class RWriteStream &)const 
	?FindField@COplDbManager@@QAEXXZ @ 46 NONAME ; public: void __thiscall COplDbManager::FindField(void)
	?FindOpenDbase@COplDbCollection@@QAEPAVCOplDb@@ABVTDesC16@@H@Z @ 47 NONAME ; public: class COplDb * __thiscall COplDbCollection::FindOpenDbase(class TDesC16 const &,int)
	?FindString@COplDbManager@@QAEXABVTDesC16@@@Z @ 48 NONAME ; public: void __thiscall COplDbManager::FindString(class TDesC16 const &)
	?FirstL@COplDbManager@@QAEXXZ @ 49 NONAME ; public: void __thiscall COplDbManager::FirstL(void)
	?FreeBytes@OplAPI@@QBEHXZ @ 50 NONAME ; public: int __thiscall OplAPI::FreeBytes(void)const 
	?GenerateSQL@COplDbManager@@QAEXHHABVTDesC16@@AAVTDes16@@@Z @ 51 NONAME ; public: void __thiscall COplDbManager::GenerateSQL(int,int,class TDesC16 const &,class TDes16 &)
	?GetErrorMessage@CDebuggerAPI@@QAEXAAVTDes16@@F@Z @ 52 NONAME ; public: void __thiscall CDebuggerAPI::GetErrorMessage(class TDes16 &,short)
	?GetFloat@OplAPI@@SANPAX@Z @ 53 NONAME ; public: static double __cdecl OplAPI::GetFloat(void *)
	?GetLong@OplAPI@@SAJPAX@Z @ 54 NONAME ; public: static long __cdecl OplAPI::GetLong(void *)
	?GetOrdinal@COplRowSet@@QAEHABVTDesC16@@@Z @ 55 NONAME ; public: int __thiscall COplRowSet::GetOrdinal(class TDesC16 const &)
	?GotoMark@COplDbManager@@QAEXH@Z @ 56 NONAME ; public: void __thiscall COplDbManager::GotoMark(int)
	?HandleAutoTransactionRollback@COplDbManager@@QAEXXZ @ 57 NONAME ; public: void __thiscall COplDbManager::HandleAutoTransactionRollback(void)
	?InTrans@COplDbManager@@QAEHXZ @ 58 NONAME ; public: int __thiscall COplDbManager::InTrans(void)
	?IncAccessCount@COpxBase@@AAEXXZ @ 59 NONAME ; private: void __thiscall COpxBase::IncAccessCount(void)
	?InitCallbackL@OplAPI@@QAEXAAVTDesC16@@@Z @ 60 NONAME ; public: void __thiscall OplAPI::InitCallbackL(class TDesC16 &)
	?InsertBlankL@COplFieldMap@@QAEXHABVTDesC16@@@Z @ 61 NONAME ; public: void __thiscall COplFieldMap::InsertBlankL(int,class TDesC16 const &)
	?InsertBlankL@COplRowSet@@QAEXXZ @ 62 NONAME ; public: void __thiscall COplRowSet::InsertBlankL(void)
	?InsertL@COplDbManager@@QAEXXZ @ 63 NONAME ; public: void __thiscall COplDbManager::InsertL(void)
	?InternalizeL@TOplDocRootStream@@QAEXAAVRReadStream@@@Z @ 64 NONAME ; public: void __thiscall TOplDocRootStream::InternalizeL(class RReadStream &)
	?KillMark@COplDbManager@@QAEXH@Z @ 65 NONAME ; public: void __thiscall COplDbManager::KillMark(int)
	?LastL@COplDbManager@@QAEXXZ @ 66 NONAME ; public: void __thiscall COplDbManager::LastL(void)
	?LeftSide@COplDbManager@@QAEXH@Z @ 67 NONAME ; public: void __thiscall COplDbManager::LeftSide(int)
	?MapError@CDebuggerAPI@@QAEFH@Z @ 68 NONAME ; public: short __thiscall CDebuggerAPI::MapError(int)
	?MapError@OplAPI@@SAFH@Z @ 69 NONAME ; public: static short __cdecl OplAPI::MapError(int)
	?MapTranslatorError@OplAPI@@SAHHAAH@Z @ 70 NONAME ; public: static int __cdecl OplAPI::MapTranslatorError(int,int &)
	?ModifyL@COplDbManager@@QAEXXZ @ 71 NONAME ; public: void __thiscall COplDbManager::ModifyL(void)
	?MultiplyL@OplAPI@@SAFFF@Z @ 72 NONAME ; public: static short __cdecl OplAPI::MultiplyL(short,short)
	?MultiplyL@OplAPI@@SAJJJ@Z @ 73 NONAME ; public: static long __cdecl OplAPI::MultiplyL(long,long)
	?NewL@CLogicalNames@@SAPAV1@XZ @ 74 NONAME ; public: static class CLogicalNames * __cdecl CLogicalNames::NewL(void)
	?NewL@COplRowSet@@SAPAV1@AAVCOplDbCollection@@AAVRFs@@ABVTDesC16@@PAVCOplFieldMap@@W4TOplDbOpenMode@@H@Z @ 75 NONAME ; public: static class COplRowSet * __cdecl COplRowSet::NewL(class COplDbCollection &,class RFs &,class TDesC16 const &,class COplFieldMap *,enum TOplDbOpenMode,int)
	?NewLC@COplFieldMap@@SAPAV1@H@Z @ 76 NONAME ; public: static class COplFieldMap * __cdecl COplFieldMap::NewLC(int)
	?NewLC@COplRowSet@@SAPAV1@AAVCOplDbCollection@@AAVRFs@@ABVTDesC16@@PAVCOplFieldMap@@W4TOplDbOpenMode@@H@Z @ 77 NONAME ; public: static class COplRowSet * __cdecl COplRowSet::NewLC(class COplDbCollection &,class RFs &,class TDesC16 const &,class COplFieldMap *,enum TOplDbOpenMode,int)
	?NewRequestL@OplAPI@@QAEAAVTRequestStatus@@PAFHVTCallBack@@@Z @ 78 NONAME ; public: class TRequestStatus & __thiscall OplAPI::NewRequestL(short *,int,class TCallBack)
	?NewRequestL@OplAPI@@QAEAAVTRequestStatus@@PAJHVTCallBack@@@Z @ 79 NONAME ; public: class TRequestStatus & __thiscall OplAPI::NewRequestL(long *,int,class TCallBack)
	?NextL@COplDbManager@@QAEXXZ @ 80 NONAME ; public: void __thiscall COplDbManager::NextL(void)
	?NoOfStrFields@COplDbManager@@QAEHXZ @ 81 NONAME ; public: int __thiscall COplDbManager::NoOfStrFields(void)
	?WaitForEvent@OplAPI@@QAEXAAVTRequestStatus@@H@Z @ 82 NONAME ; public: void __thiscall OplAPI::WaitForEvent(class TRequestStatus &,int)
	?OffsetToAddrL@OplAPI@@QAEPAEHH@Z @ 83 NONAME ; public: unsigned char * __thiscall OplAPI::OffsetToAddrL(int,int)
	?OpenCheckL@COplDbManager@@QAEXXZ @ 84 NONAME ; public: void __thiscall COplDbManager::OpenCheckL(void)
	?OpenCheckL@OplAPI@@QAEXXZ @ 85 NONAME ; public: void __thiscall OplAPI::OpenCheckL(void)
	?OpenRowSetL@COplRowSet@@QAEXPAVRDbRowSet@@HPAVCOplFieldMap@@@Z @ 86 NONAME ; public: void __thiscall COplRowSet::OpenRowSetL(class RDbRowSet *,int,class COplFieldMap *)
	?PopInt16@OplAPI@@QAEFXZ @ 87 NONAME ; public: short __thiscall OplAPI::PopInt16(void)
	?PopInt32@OplAPI@@QAEJXZ @ 88 NONAME ; public: long __thiscall OplAPI::PopInt32(void)
	?PopPtrInt16@OplAPI@@QAEPAFXZ @ 89 NONAME ; public: short * __thiscall OplAPI::PopPtrInt16(void)
	?PopPtrInt32@OplAPI@@QAEPAJXZ @ 90 NONAME ; public: long * __thiscall OplAPI::PopPtrInt32(void)
	?PopPtrReal64@OplAPI@@QAEPANXZ @ 91 NONAME ; public: double * __thiscall OplAPI::PopPtrReal64(void)
	?PopReal64@OplAPI@@QAENXZ @ 92 NONAME ; public: double __thiscall OplAPI::PopReal64(void)
	?PopString@OplAPI@@QAE?AVTPtrC16@@XZ @ 93 NONAME ; public: class TPtrC16  __thiscall OplAPI::PopString(void)
	?PosL@COplDbManager@@QAEXXZ @ 94 NONAME ; public: void __thiscall COplDbManager::PosL(void)
	?PositionL@COplDbManager@@QAEXI@Z @ 95 NONAME ; public: void __thiscall COplDbManager::PositionL(unsigned int)
	?PrepareForUpdate@COplRowSet@@QAEXXZ @ 96 NONAME ; public: void __thiscall COplRowSet::PrepareForUpdate(void)
	?Push@OplAPI@@QAEXF@Z @ 97 NONAME ; public: void __thiscall OplAPI::Push(short)
	?Push@OplAPI@@QAEXJ@Z @ 98 NONAME ; public: void __thiscall OplAPI::Push(long)
	?Push@OplAPI@@QAEXN@Z @ 99 NONAME ; public: void __thiscall OplAPI::Push(double)
	?PushL@OplAPI@@QAEXABVTDesC16@@@Z @ 100 NONAME ; public: void __thiscall OplAPI::PushL(class TDesC16 const &)
	?PushL@OplAPI@@QAEXPBG@Z @ 101 NONAME ; public: void __thiscall OplAPI::PushL(unsigned short const *)
	?PushParamL@OplAPI@@QAEXABVTDesC16@@@Z @ 102 NONAME ; public: void __thiscall OplAPI::PushParamL(class TDesC16 const &)
	?PushParamL@OplAPI@@QAEXF@Z @ 103 NONAME ; public: void __thiscall OplAPI::PushParamL(short)
	?PushParamL@OplAPI@@QAEXJ@Z @ 104 NONAME ; public: void __thiscall OplAPI::PushParamL(long)
	?PushParamL@OplAPI@@QAEXN@Z @ 105 NONAME ; public: void __thiscall OplAPI::PushParamL(double)
	?PutFloat@OplAPI@@SAXPAXN@Z @ 106 NONAME ; public: static void __cdecl OplAPI::PutFloat(void *,double)
	?PutL@COplDbManager@@QAEXXZ @ 107 NONAME ; public: void __thiscall COplDbManager::PutL(void)
	?PutLong@OplAPI@@SAXPAXJ@Z @ 108 NONAME ; public: static void __cdecl OplAPI::PutLong(void *,long)
	?ReadName@COplFieldMap@@QAEXHAAVTDes16@@@Z @ 109 NONAME ; public: void __thiscall COplFieldMap::ReadName(int,class TDes16 &)
	?ReadType@COplFieldMap@@QAE?AW4TDbColType@@H@Z @ 110 NONAME ; public: enum TDbColType  __thiscall COplFieldMap::ReadType(int)
	?ResetRelatedViews@COplDbManager@@QAEXXZ @ 111 NONAME ; public: void __thiscall COplDbManager::ResetRelatedViews(void)
	?Rollback@COplDbManager@@QAEXXZ @ 112 NONAME ; public: void __thiscall COplDbManager::Rollback(void)
	?RootWindow@OplAPI@@QAEAAVRWindowGroup@@XZ @ 113 NONAME ; public: class RWindowGroup & __thiscall OplAPI::RootWindow(void)
	?RuntimeResourceFile@@YA?AV?$TBuf@$0BAA@@@XZ @ 114 NONAME ; class TBuf<256>  __cdecl RuntimeResourceFile(void)
	?SOF@COplDbManager@@QAEHPAVRDbRowSet@@@Z @ 115 NONAME ; public: int __thiscall COplDbManager::SOF(class RDbRowSet *)
	?SOF@COplDbManager@@QAEHXZ @ 116 NONAME ; public: int __thiscall COplDbManager::SOF(void)
	?SafelyPutL@COplDbManager@@QAEXXZ @ 117 NONAME ; public: void __thiscall COplDbManager::SafelyPutL(void)
	?SafetyDeleteL@COplDbManager@@QAEXXZ @ 118 NONAME ; public: void __thiscall COplDbManager::SafetyDeleteL(void)
	?ScanForOrdinal@COplFieldMap@@QAEHABVTDesC16@@@Z @ 119 NONAME ; public: int __thiscall COplFieldMap::ScanForOrdinal(class TDesC16 const &)
	?ScreenDevice@OplAPI@@QAEPAVCWsScreenDevice@@XZ @ 120 NONAME ; public: class CWsScreenDevice * __thiscall OplAPI::ScreenDevice(void)
	?SetGlobalInt16L@CDebuggerAPI@@QAEXABVTDesC16@@HF@Z @ 121 NONAME ; public: void __thiscall CDebuggerAPI::SetGlobalInt16L(class TDesC16 const &,int,short)
	?SetGlobalInt32L@CDebuggerAPI@@QAEXABVTDesC16@@HJ@Z @ 122 NONAME ; public: void __thiscall CDebuggerAPI::SetGlobalInt32L(class TDesC16 const &,int,long)
	?SetGlobalReal64L@CDebuggerAPI@@QAEXABVTDesC16@@HN@Z @ 123 NONAME ; public: void __thiscall CDebuggerAPI::SetGlobalReal64L(class TDesC16 const &,int,double)
	?SetGlobalStringL@CDebuggerAPI@@QAEXABVTDesC16@@H0@Z @ 124 NONAME ; public: void __thiscall CDebuggerAPI::SetGlobalStringL(class TDesC16 const &,int,class TDesC16 const &)
	?SetLocalInt16L@CDebuggerAPI@@QAEXHHF@Z @ 125 NONAME ; public: void __thiscall CDebuggerAPI::SetLocalInt16L(int,int,short)
	?SetLocalInt32L@CDebuggerAPI@@QAEXHHJ@Z @ 126 NONAME ; public: void __thiscall CDebuggerAPI::SetLocalInt32L(int,int,long)
	?SetLocalReal64L@CDebuggerAPI@@QAEXHHN@Z @ 127 NONAME ; public: void __thiscall CDebuggerAPI::SetLocalReal64L(int,int,double)
	?SetLocalStringL@CDebuggerAPI@@QAEXHHABVTDesC16@@@Z @ 128 NONAME ; public: void __thiscall CDebuggerAPI::SetLocalStringL(int,int,class TDesC16 const &)
	?SetMark@TOplBookmark@@QAEXVTDbBookmark@@@Z @ 129 NONAME ; public: void __thiscall TOplBookmark::SetMark(class TDbBookmark)
	?SetStackPtr@OplAPI@@QAEXPBX@Z @ 130 NONAME ; public: void __thiscall OplAPI::SetStackPtr(void const *)
	?SetiLogNames@COplDbManager@@QAEXPAVCLogicalNames@@@Z @ 131 NONAME ; public: void __thiscall COplDbManager::SetiLogNames(class CLogicalNames *)
	?Space@COplDbManager@@QAEJXZ @ 132 NONAME ; public: long __thiscall COplDbManager::Space(void)
	?StackPtr@OplAPI@@QBEPAXXZ @ 133 NONAME ; public: void * __thiscall OplAPI::StackPtr(void)const 
	?WaitForEvent@OplAPI@@QAEXAAVTWsEvent@@W4TUserEventsRequired@@@Z @ 134 NONAME ; public: void __thiscall OplAPI::WaitForEvent(class TWsEvent &,enum TUserEventsRequired)
	?StringFieldValueL@COplDbManager@@QAEXAAVTDes16@@@Z @ 135 NONAME ; public: void __thiscall COplDbManager::StringFieldValueL(class TDes16 &)
	?UpdateL@COplDbManager@@QAEXXZ @ 136 NONAME ; public: void __thiscall COplDbManager::UpdateL(void)
	?UseLog@COplDbManager@@QAEXH@Z @ 137 NONAME ; public: void __thiscall COplDbManager::UseLog(int)
	?WindowFromIdL@OplAPI@@QAEAAVRBackedUpWindow@@H@Z @ 138 NONAME ; public: class RBackedUpWindow & __thiscall OplAPI::WindowFromIdL(int)
	?WsSession@OplAPI@@QAEAAVRWsSession@@XZ @ 139 NONAME ; public: class RWsSession & __thiscall OplAPI::WsSession(void)
	?GetWord@OplAPI@@SAFPAX@Z @ 140 NONAME ; public: static short __cdecl OplAPI::GetWord(void *)
	?PutWord@OplAPI@@SAXPAXF@Z @ 141 NONAME ; public: static void __cdecl OplAPI::PutWord(void *,short)
	?MEventSource_Reserved1@MEventSource@@EAEXXZ @ 142 NONAME ; private: virtual void __thiscall MEventSource::MEventSource_Reserved1(void)
	?MEventSource_Reserved2@MEventSource@@EAEXXZ @ 143 NONAME ; private: virtual void __thiscall MEventSource::MEventSource_Reserved2(void)
	?AppCurrentDocument@OplAPI@@QAE?AVTPtrC16@@XZ @ 144 NONAME ; public: class TPtrC16  __thiscall OplAPI::AppCurrentDocument(void)
	?AppLocation@OplAPI@@QAE?AVTPtrC16@@XZ @ 145 NONAME ; public: class TPtrC16  __thiscall OplAPI::AppLocation(void)
	?ConvertFromNarrowToUnicodeL@COplRuntimeCharConv@@SAPAVHBufC16@@ABVTDesC8@@I@Z @ 146 NONAME ; public: static class HBufC16 * __cdecl COplRuntimeCharConv::ConvertFromNarrowToUnicodeL(class TDesC8 const &,unsigned int)
	?ConvertFromNarrowToUnicodeL@OplAPI@@QBEPAVHBufC16@@ABVTDesC8@@I@Z @ 147 NONAME ; public: class HBufC16 * __thiscall OplAPI::ConvertFromNarrowToUnicodeL(class TDesC8 const &,unsigned int)const 
	?ConvertFromNarrowToUnicodeLC@COplRuntimeCharConv@@SAPAVHBufC16@@ABVTDesC8@@I@Z @ 148 NONAME ; public: static class HBufC16 * __cdecl COplRuntimeCharConv::ConvertFromNarrowToUnicodeLC(class TDesC8 const &,unsigned int)
	?ConvertFromNarrowToUnicodeLC@OplAPI@@QBEPAVHBufC16@@ABVTDesC8@@I@Z @ 149 NONAME ; public: class HBufC16 * __thiscall OplAPI::ConvertFromNarrowToUnicodeLC(class TDesC8 const &,unsigned int)const 
	?ConvertFromUnicodeToNarrowL@COplRuntimeCharConv@@SAPAVHBufC8@@ABVTDesC16@@I@Z @ 150 NONAME ; public: static class HBufC8 * __cdecl COplRuntimeCharConv::ConvertFromUnicodeToNarrowL(class TDesC16 const &,unsigned int)
	?ConvertFromUnicodeToNarrowL@OplAPI@@QBEPAVHBufC8@@ABVTDesC16@@I@Z @ 151 NONAME ; public: class HBufC8 * __thiscall OplAPI::ConvertFromUnicodeToNarrowL(class TDesC16 const &,unsigned int)const 
	?ConvertFromUnicodeToNarrowLC@COplRuntimeCharConv@@SAPAVHBufC8@@ABVTDesC16@@I@Z @ 152 NONAME ; public: static class HBufC8 * __cdecl COplRuntimeCharConv::ConvertFromUnicodeToNarrowLC(class TDesC16 const &,unsigned int)
	?ConvertFromUnicodeToNarrowLC@OplAPI@@QBEPAVHBufC8@@ABVTDesC16@@I@Z @ 153 NONAME ; public: class HBufC8 * __thiscall OplAPI::ConvertFromUnicodeToNarrowLC(class TDesC16 const &,unsigned int)const 

