EXPORTS ?NewTranslatorL@@YAPAVCOplTranslatorBase@@XZ @1 NONAME
EXPORTS ??1COplEvalTranslator@@UAE@XZ @2 NONAME
EXPORTS ??1COplModuleLexer@@UAE@XZ @3 NONAME
EXPORTS ??1COplModuleTranslator@@UAE@XZ @4 NONAME
EXPORTS ??1CPcodeConstant@@UAE@XZ @5 NONAME
EXPORTS ??1CPcodeFieldName@@UAE@XZ @6 NONAME
EXPORTS ??1CPcodeFieldReference@@UAE@XZ @7 NONAME
EXPORTS ?AsLongL@TOplConstant@@QBEJXZ @8 NONAME
EXPORTS ?AsRealL@TOplConstant@@QBENXZ @9 NONAME
EXPORTS ?AsStringL@TOplConstant@@QBEABVTDesC16@@XZ @10 NONAME
EXPORTS ?AsWordL@TOplConstant@@QBEFXZ @11 NONAME
EXPORTS ?Cancel@COplModuleTranslator@@UAEXXZ @12 NONAME
EXPORTS ?Drop@CTranStackBase@@QAEXXZ @13 NONAME
EXPORTS ?ExternalizeL@TOplConstant@@QBEXAAVRWriteStream@@@Z @14 NONAME
EXPORTS ?GotoPosition@COplModuleLexer@@QAEXH@Z @15 NONAME
EXPORTS ?IncludeL@COplModuleLexer@@QAEXABVTDesC16@@@Z @16 NONAME
EXPORTS ?InternalizeL@TPcode@@QAEXAAVRReadStream@@@Z @17 NONAME
EXPORTS ?InternalizeL@TPcodeFunctionCall@@QAEXAAVRReadStream@@@Z @18 NONAME
EXPORTS ?InternalizeL@TPcodeOperator@@QAEXAAVRReadStream@@@Z @19 NONAME
EXPORTS ?InternalizeL@TPcodeProcByName@@QAEXAAVRReadStream@@@Z @20 NONAME
EXPORTS ?InternalizeL@TPcodeQualifiedCommand@@QAEXAAVRReadStream@@@Z @21 NONAME
EXPORTS ?InternalizeL@TPcodeSymbolReference@@QAEXAAVRReadStream@@@Z @22 NONAME
EXPORTS ?InternalizeL@TPcodeTypedCommand@@QAEXAAVRReadStream@@@Z @23 NONAME
EXPORTS ?LexL@COplLexerBase@@QAEXVTOplToken@@@Z @24 NONAME
EXPORTS ?LexL@COplLexerBase@@UAE?AVTOplToken@@XZ @25 NONAME
EXPORTS ?LexL@COplModuleLexer@@UAE?AVTOplToken@@XZ @26 NONAME
EXPORTS ?LocateError@COplEvalTranslator@@QAEHABVTDesC16@@AAVTTranslateError@@@Z @27 NONAME
EXPORTS ?LocateErrorL@COplModuleTranslator@@UAEXAAVMTextSourceSystem@@ABV?$TBuf@$0BAA@@@1W4TDebugFlag@CTextTranslator@@AAVTSourceTranslateError@@H@Z @28 NONAME
EXPORTS ?Mark@COplLexerBase@@QAEXXZ @29 NONAME
EXPORTS ?MarkedToken@COplLexerBase@@QAE?AVTPtrC16@@XZ @30 NONAME
EXPORTS ?NegateL@TOplConstant@@QAEXXZ @31 NONAME
EXPORTS ?NewL@COplEvalTranslator@@SAPAV1@XZ @32 NONAME
EXPORTS ?NewL@COplLineLexer@@SAPAV1@XZ @33 NONAME
EXPORTS ?NewL@COplModuleLexer@@SAPAV1@XZ @34 NONAME
EXPORTS ?NewL@COplModuleTranslator@@SAPAV1@XZ @35 NONAME
EXPORTS ?NewLC@COplEvalTranslator@@SAPAV1@XZ @36 NONAME
EXPORTS ?NewLC@COplModuleTranslator@@SAPAV1@XZ @37 NONAME
EXPORTS ?NewLC@CPcodeConstant@@SAPAV1@AAVRReadStream@@@Z @38 NONAME
EXPORTS ?NewLC@CPcodeFieldName@@SAPAV1@AAVRReadStream@@@Z @39 NONAME
EXPORTS ?NewLC@CPcodeFieldReference@@SAPAV1@AAVRReadStream@@@Z @40 NONAME
EXPORTS ?NextChar@COplLexerBase@@QAE?AVTChar@@XZ @41 NONAME
EXPORTS ?OpenL@COplModuleLexer@@QAEXAAVMTextSourceSystem@@ABVTDesC16@@AAVTSourceTranslateError@@@Z @42 NONAME
EXPORTS ?Peek@CTranStackBase@@IBEPBXH@Z @43 NONAME
EXPORTS ?Pick@CTranStackBase@@IAEXPAXH@Z @44 NONAME
EXPORTS ?Reset@COplLexerBase@@UAEXXZ @45 NONAME
EXPORTS ?Reset@COplModuleLexer@@UAEXXZ @46 NONAME
EXPORTS ?SetAppCB@COplModuleTranslator@@UAEXPAVMTranAppCB@@@Z @47 NONAME
EXPORTS ?SetTarget@COplLexerBase@@QAEXW4TOplTranTarget@@@Z @48 NONAME
EXPORTS ?SetTarget@COplModuleTranslator@@UAEXW4TOplTranTarget@@@Z @49 NONAME
EXPORTS ?StartTranslateL@COplModuleTranslator@@QAEXAAVMTextSourceSystem@@ABV?$TBuf@$0BAA@@@AAVCOplModuleBackEnd@@W4TDebugFlag@CTextTranslator@@AAVTSourceTranslateError@@@Z @50 NONAME
EXPORTS ?StartTranslateL@COplModuleTranslator@@UAEXAAVMTextSourceSystem@@ABV?$TBuf@$0BAA@@@1W4TDebugFlag@CTextTranslator@@AAVTSourceTranslateError@@@Z @51 NONAME
EXPORTS ?TokenOffset@COplLexerBase@@UBEHXZ @52 NONAME
EXPORTS ?TokenOffset@COplModuleLexer@@UBEHXZ @53 NONAME
EXPORTS ?Translate@COplEvalTranslator@@QAEHABVTDesC16@@AAVTTranslateError@@AAVCBufBase@@AAH@Z @54 NONAME
EXPORTS ?TranslateChunk@COplModuleTranslator@@UAEHXZ @55 NONAME
EXPORTS ?UnGetToMark@COplLexerBase@@UAEXXZ @56 NONAME
EXPORTS ?UnGetToMark@COplModuleLexer@@UAEXXZ @57 NONAME
EXPORTS ?UnLex@COplLexerBase@@UAEXXZ @58 NONAME
EXPORTS ?UnLex@COplModuleLexer@@UAEXXZ @59 NONAME
